target datalayout = "e-m:e-p270:32:32-p271:32:32-p272:64:64-i64:64-i128:128-f80:128-n8:16:32:64-S128"
target triple = "x86_64-pc-linux-gnu"

%struct.pref_module = type { ptr, ptr, ptr, ptr, ptr, ptr, ptr, ptr, i32, i32, i8, i8, i32 }

@.str = private unnamed_addr constant [5 x i8] c"Epan\00", align 1
@.str.1 = private unnamed_addr constant [13 x i8] c"epan/prefs.c\00", align 1
@__func__.prefs_set_module_effect_flags = private unnamed_addr constant [30 x i8] c"prefs_set_module_effect_flags\00", align 1
@.str.50 = private unnamed_addr constant [49 x i8] c"Setting module \22%s\22 preference effect flags to 0\00", align 1

; Function Attrs: null_pointer_is_valid sspstrong uwtable
define void @prefs_set_module_effect_flags(ptr noundef %0, i32 noundef %1) #1 {
  %3 = alloca ptr, align 8
  %4 = alloca i32, align 4
  store ptr %0, ptr %3, align 8
  store i32 %1, ptr %4, align 4
  %5 = load ptr, ptr %3, align 8
  %6 = icmp ne ptr %5, null
  br i1 %6, label %7, label %18

7:                                                ; preds = %2
  %8 = load i32, ptr %4, align 4
  %9 = icmp eq i32 %8, 0
  br i1 %9, label %10, label %14

10:                                               ; preds = %7
  %11 = load ptr, ptr %3, align 8
  %12 = getelementptr inbounds nuw %struct.pref_module, ptr %11, i32 0, i32 0
  %13 = load ptr, ptr %12, align 8
  call void (ptr, i32, ptr, i64, ptr, ptr, ...) @ws_log_fatal_full(ptr noundef @.str, i32 noundef 7, ptr noundef @.str.1, i64 noundef 6618, ptr noundef @__func__.prefs_set_module_effect_flags, ptr noundef @.str.50, ptr noundef %13) #18
  unreachable

14:                                               ; preds = %7
  %15 = load i32, ptr %4, align 4
  %16 = load ptr, ptr %3, align 8
  %17 = getelementptr inbounds nuw %struct.pref_module, ptr %16, i32 0, i32 12
  store i32 %15, ptr %17, align 4
  br label %18

18:                                               ; preds = %14, %2
  ret void
}