; Function Attrs: null_pointer_is_valid sspstrong uwtable
define void @prefs_set_module_effect_flags(ptr noundef captures(address_is_null) %0, i32 noundef %1) local_unnamed_addr #1 {
  %.not = icmp eq ptr %0, null
  br i1 %.not, label %9, label %3

3:                                                ; preds = %2
  %4 = icmp eq i32 %1, 0
  br i1 %4, label %5, label %7

5:                                                ; preds = %3
  %6 = load ptr, ptr %0, align 8
  tail call void (ptr, i32, ptr, i64, ptr, ptr, ...) @ws_log_fatal_full(ptr noundef nonnull @.str, i32 noundef 7, ptr noundef nonnull @.str.1, i64 noundef 6618, ptr noundef nonnull @__func__.prefs_set_module_effect_flags, ptr noundef nonnull @.str.50, ptr noundef %6) #26
  unreachable

7:                                                ; preds = %3
  %8 = getelementptr inbounds nuw i8, ptr %0, i64 76
  store i32 %1, ptr %8, align 4
  br label %9

9:                                                ; preds = %7, %2
  ret void
}